-----BEGIN PRIVATE KEY-----
MIICdwIBADANBgkqhkiG9w0BAQEFAASCAmEwggJdAgEAAoGBANDeoyKD36b4c/F8
9yszWtQNyMTmw7MSE/2wnLLrd/fUyfIBUoXlPPBb/Y0h+ZJsNZzEyXUyhb1bRhDh
i60bAJPx2N8Rrwj8x7ph+uLOhSLt0VzxIIJfjf6enYv8jzw+4uPO1sAFzhRYMvfH
oFM7W2N+X1naFP20hhfNOhEbvzaVAgMBAAECgYAxFJ/w9FwRuEBGdr79/8tQGQ0c
d710zsKz0lSAFqTSL8Zkf7sMi5mOQY+LIniq15Khi/xq9bxHirMkNFvGCZpQvM6m
DuKAHf/0zFQOfM3QtXxEb64uupS8UTsiTkiq84Zwb3g6uWYXB+3zvY+FDbi5SkXp
P1c6c58wu1WSSqBh4QJBAOijVjTxu1FtvrVN/e4J+lfuXKYs7cO9tbC7L2cAhB0A
6lAD2w1NRbIoY9IXwFc0E+vbyNqp18wYWuUNi+dYTEcCQQDl2ENZ3vc4LvtWWkMm
fmQ95ks7WTWCnxkWdFKWLEnRAOUM18dJnJgoJxvySaCifrMhOObz+UgJx/a23Sqj
IsBDAkBRXshJbn/xhGxfKC94cj8BQJtheHeVrqZ9cYusAG81YduTLzYQWgXVwfDg
THR3S/zn05FWgm+7sI0ibvGPcsADAkEAjr/dPLDk/Aj54qzWrc6r9WHVcbu7JzAm
xbJjJI/HHL6gg3R0enx+Z9m6WqVt1d445LZRgk9ddW2zBemgtIc9vwJBAJkuovHW
wq/hmDkBuPqbe2KX5id4sQZqCr7V+fAs12lxjEIwk/fe2Oop0E1dsLGXQaCzqKmp
GXaAzcrQXi7JtZc=
-----END PRIVATE KEY-----
Certificate:
    Data:
        Version: 1 (0x0)
        Serial Number:
            a4:da:fb:14:c7:46:fe:d3
    Signature Algorithm: sha1WithRSAEncryption
        Issuer: C=XY, O=Dask CA, CN=our-ca-server
        Validity
            Not Before: Apr  5 14:36:25 2017 GMT
            Not After : Feb 12 14:36:25 2027 GMT
        Subject: C=XY, L=Dask-distributed, O=Dask, CN=localhost
        Subject Public Key Info:
            Public Key Algorithm: rsaEncryption
                Public-Key: (1024 bit)
                Modulus:
                    00:d0:de:a3:22:83:df:a6:f8:73:f1:7c:f7:2b:33:
                    5a:d4:0d:c8:c4:e6:c3:b3:12:13:fd:b0:9c:b2:eb:
                    77:f7:d4:c9:f2:01:52:85:e5:3c:f0:5b:fd:8d:21:
                    f9:92:6c:35:9c:c4:c9:75:32:85:bd:5b:46:10:e1:
                    8b:ad:1b:00:93:f1:d8:df:11:af:08:fc:c7:ba:61:
                    fa:e2:ce:85:22:ed:d1:5c:f1:20:82:5f:8d:fe:9e:
                    9d:8b:fc:8f:3c:3e:e2:e3:ce:d6:c0:05:ce:14:58:
                    32:f7:c7:a0:53:3b:5b:63:7e:5f:59:da:14:fd:b4:
                    86:17:cd:3a:11:1b:bf:36:95
                Exponent: 65537 (0x10001)
    Signature Algorithm: sha1WithRSAEncryption
         15:c0:ca:1b:ec:f1:3b:ba:08:65:fb:6a:f6:60:6f:29:15:48:
         f6:4c:ba:f0:56:56:5e:2a:6c:3c:68:94:d6:6b:eb:23:d7:ec:
         09:2f:72:2b:21:91:fa:4a:e8:b6:f3:79:28:db:00:8e:66:8d:
         2d:63:69:fa:ac:e5:3f:e0:71:d5:ae:ea:d6:f2:26:7e:a0:e6:
         04:db:f0:98:03:d1:0a:67:fd:c5:53:8a:6d:46:7a:7a:8e:48:
         57:42:76:0d:11:f2:d0:34:ee:e4:a5:ca:25:22:09:d5:74:f9:
         30:6a:03:30:5b:2a:ec:d0:2e:09:ef:8e:f1:f8:af:1b:3f:bf:
         29:08:89:cf:a2:58:f1:4f:01:60:82:59:9e:6c:33:e1:9b:4a:
         cd:ec:c1:e7:73:c9:eb:68:34:e0:d3:08:f8:7c:41:08:d7:1f:
         b1:00:01:d4:e0:0b:5b:52:39:be:1c:d0:75:d2:05:55:7d:14:
         82:4c:8c:16:9f:30:ff:03:c1:ac:09:53:19:76:71:e5:f1:d9:
         07:4b:db:d3:99:71:a8:31:7c:1f:99:27:3f:1c:6f:c9:02:e9:
         0c:a8:d3:62:fd:a8:b9:57:28:c4:8f:f8:33:9c:c1:f1:a9:47:
         fb:bb:c6:60:31:b3:06:1e:ab:89:eb:e4:23:32:09:17:a3:5e:
         04:8e:88:c4
-----BEGIN CERTIFICATE-----
MIICejCCAWICCQCk2vsUx0b+0zANBgkqhkiG9w0BAQUFADA3MQswCQYDVQQGEwJY
WTEQMA4GA1UECgwHRGFzayBDQTEWMBQGA1UEAwwNb3VyLWNhLXNlcnZlcjAeFw0x
NzA0MDUxNDM2MjVaFw0yNzAyMTIxNDM2MjVaMEsxCzAJBgNVBAYTAlhZMRkwFwYD
VQQHDBBEYXNrLWRpc3RyaWJ1dGVkMQ0wCwYDVQQKDAREYXNrMRIwEAYDVQQDDAls
b2NhbGhvc3QwgZ8wDQYJKoZIhvcNAQEBBQADgY0AMIGJAoGBANDeoyKD36b4c/F8
9yszWtQNyMTmw7MSE/2wnLLrd/fUyfIBUoXlPPBb/Y0h+ZJsNZzEyXUyhb1bRhDh
i60bAJPx2N8Rrwj8x7ph+uLOhSLt0VzxIIJfjf6enYv8jzw+4uPO1sAFzhRYMvfH
oFM7W2N+X1naFP20hhfNOhEbvzaVAgMBAAEwDQYJKoZIhvcNAQEFBQADggEBABXA
yhvs8Tu6CGX7avZgbykVSPZMuvBWVl4qbDxolNZr6yPX7AkvcishkfpK6LbzeSjb
AI5mjS1jafqs5T/gcdWu6tbyJn6g5gTb8JgD0Qpn/cVTim1GenqOSFdCdg0R8tA0
7uSlyiUiCdV0+TBqAzBbKuzQLgnvjvH4rxs/vykIic+iWPFPAWCCWZ5sM+GbSs3s
wedzyetoNODTCPh8QQjXH7EAAdTgC1tSOb4c0HXSBVV9FIJMjBafMP8DwawJUxl2
ceXx2QdL29OZcagxfB+ZJz8cb8kC6Qyo02L9qLlXKMSP+DOcwfGpR/u7xmAxswYe
q4nr5CMyCRejXgSOiMQ=
-----END CERTIFICATE-----
