Certificate:
    Data:
        Version: 3 (0x2)
        Serial Number:
            a4:da:fb:14:c7:46:fe:d2
    Signature Algorithm: sha1WithRSAEncryption
        Issuer: C=XY, O=Dask CA, CN=our-ca-server
        Validity
            Not Before: Apr  5 14:36:25 2017 GMT
            Not After : Apr  3 14:36:25 2027 GMT
        Subject: C=XY, O=Dask CA, CN=our-ca-server
        Subject Public Key Info:
            Public Key Algorithm: rsaEncryption
                Public-Key: (2048 bit)
                Modulus:
                    00:d2:ab:69:b2:9e:76:de:6e:85:7d:18:6c:8b:d4:
                    68:fd:4a:96:e2:03:2f:8e:dd:ab:46:53:c4:46:af:
                    8a:2d:5a:c8:39:7f:7b:ce:39:69:ae:f0:b1:b3:5d:
                    84:b1:81:b0:94:bd:b6:de:22:38:bd:7a:cc:c9:d6:
                    ed:e0:ba:9c:a6:59:67:bb:9f:ca:01:c3:11:2c:15:
                    05:24:9a:a3:31:1e:4f:f5:40:ad:97:54:24:f4:ca:
                    e6:68:ad:ef:33:fd:d1:91:3f:bc:36:7b:45:99:53:
                    fd:3c:50:2a:2c:84:38:b7:83:81:bf:72:b4:d0:eb:
                    e3:43:be:8c:cb:91:92:bc:c6:76:98:7a:28:14:cc:
                    a1:29:1d:ff:3f:22:5f:8d:21:e4:88:4c:b1:81:93:
                    4c:d8:ca:1c:55:cf:c9:a1:4d:0f:de:7d:b9:87:38:
                    0f:d4:a8:2f:ec:35:d4:76:0f:1b:7f:20:9b:c9:2e:
                    50:4d:89:d0:a5:61:a9:ae:8e:73:48:50:1a:33:1e:
                    28:55:c4:31:80:95:11:03:27:97:83:8a:49:c0:99:
                    6d:93:32:80:c1:5d:60:2b:52:0a:ca:ca:f7:54:32:
                    10:3c:62:8c:73:14:a6:25:21:42:1a:45:a2:42:6a:
                    c7:fe:c9:04:c3:fe:ef:ee:4a:34:61:3c:c5:80:a9:
                    48:91
                Exponent: 65537 (0x10001)
        X509v3 extensions:
            X509v3 Subject Key Identifier: 
                92:E3:52:19:13:1F:38:4E:31:EC:D4:66:CA:3C:E6:74:ED:9D:2E:3B
            X509v3 Authority Key Identifier: 
                keyid:92:E3:52:19:13:1F:38:4E:31:EC:D4:66:CA:3C:E6:74:ED:9D:2E:3B

            X509v3 Basic Constraints: 
                CA:TRUE
    Signature Algorithm: sha1WithRSAEncryption
         41:dc:da:b5:ba:a6:1b:81:9d:d8:72:9e:c9:14:ab:b6:b1:e2:
         36:7b:6f:d4:b7:7e:8a:c6:ad:f5:15:45:ac:1f:f9:38:4d:cd:
         de:05:00:4f:c2:74:ba:fb:4d:19:25:0f:c5:8e:d7:02:e2:e6:
         a9:69:a2:b4:36:4a:6c:10:49:00:09:0d:9b:3a:5e:4a:14:57:
         7b:5a:63:bf:83:33:6c:af:88:64:e0:a5:e1:d5:56:97:d1:4d:
         79:db:8e:b3:a9:b7:a9:aa:41:e8:26:2d:36:05:9c:fc:9d:60:
         c4:23:a2:0c:92:48:b1:cf:3a:c6:e9:67:9e:71:b2:d6:97:1f:
         be:fa:e0:ff:72:52:a7:78:50:87:26:0a:28:e6:cc:46:e8:88:
         3f:a0:aa:86:0e:b8:20:b1:b8:fd:45:0c:94:4c:67:e2:05:99:
         25:65:92:21:16:85:df:91:1a:0c:02:36:3b:7a:f1:3d:08:29:
         5a:47:83:45:0b:2e:ff:ce:cb:97:64:8f:fa:d8:99:1d:eb:c1:
         20:2e:ca:61:11:e9:08:f9:c7:ce:9f:14:a5:c6:55:e5:ed:07:
         4a:eb:2f:0a:18:90:fb:5d:23:b4:19:f7:29:1f:66:6e:32:e4:
         61:1c:7f:78:73:1d:56:24:ef:1a:ab:4c:85:72:a8:0a:63:ef:
         67:f7:03:6f
-----BEGIN CERTIFICATE-----
MIIDQTCCAimgAwIBAgIJAKTa+xTHRv7SMA0GCSqGSIb3DQEBBQUAMDcxCzAJBgNV
BAYTAlhZMRAwDgYDVQQKDAdEYXNrIENBMRYwFAYDVQQDDA1vdXItY2Etc2VydmVy
MB4XDTE3MDQwNTE0MzYyNVoXDTI3MDQwMzE0MzYyNVowNzELMAkGA1UEBhMCWFkx
EDAOBgNVBAoMB0Rhc2sgQ0ExFjAUBgNVBAMMDW91ci1jYS1zZXJ2ZXIwggEiMA0G
CSqGSIb3DQEBAQUAA4IBDwAwggEKAoIBAQDSq2mynnbeboV9GGyL1Gj9SpbiAy+O
3atGU8RGr4otWsg5f3vOOWmu8LGzXYSxgbCUvbbeIji9eszJ1u3gupymWWe7n8oB
wxEsFQUkmqMxHk/1QK2XVCT0yuZore8z/dGRP7w2e0WZU/08UCoshDi3g4G/crTQ
6+NDvozLkZK8xnaYeigUzKEpHf8/Il+NIeSITLGBk0zYyhxVz8mhTQ/efbmHOA/U
qC/sNdR2Dxt/IJvJLlBNidClYamujnNIUBozHihVxDGAlREDJ5eDiknAmW2TMoDB
XWArUgrKyvdUMhA8YoxzFKYlIUIaRaJCasf+yQTD/u/uSjRhPMWAqUiRAgMBAAGj
UDBOMB0GA1UdDgQWBBSS41IZEx84TjHs1GbKPOZ07Z0uOzAfBgNVHSMEGDAWgBSS
41IZEx84TjHs1GbKPOZ07Z0uOzAMBgNVHRMEBTADAQH/MA0GCSqGSIb3DQEBBQUA
A4IBAQBB3Nq1uqYbgZ3Ycp7JFKu2seI2e2/Ut36Kxq31FUWsH/k4Tc3eBQBPwnS6
+00ZJQ/FjtcC4uapaaK0NkpsEEkACQ2bOl5KFFd7WmO/gzNsr4hk4KXh1VaX0U15
246zqbepqkHoJi02BZz8nWDEI6IMkkixzzrG6WeecbLWlx+++uD/clKneFCHJgoo
5sxG6Ig/oKqGDrggsbj9RQyUTGfiBZklZZIhFoXfkRoMAjY7evE9CClaR4NFCy7/
zsuXZI/62Jkd68EgLsphEekI+cfOnxSlxlXl7QdK6y8KGJD7XSO0GfcpH2ZuMuRh
HH94cx1WJO8aq0yFcqgKY+9n9wNv
-----END CERTIFICATE-----
