-----BEGIN PRIVATE KEY-----
MIIEvgIBADANBgkqhkiG9w0BAQEFAASCBKgwggSkAgEAAoIBAQDlc+6wNJa58hI+
FYrpdscRKeAjeIQD7OuoHuu2Ar80lUMpHvsnQfx9Vfh06tzi2ojRjU7ueL/KTNpa
ASTnTpXGso1V4LFtcKTHDqU1d5F1BkJ0aqQsf4/UCvCer7GXHQ43TvrousGpWTj1
XWfRH2E35cpyiW87YUlFf/rntBd2jkp372oua7S6JCd8Rdev1CBT4uzaT73C4Pyi
YYrYlvBoZ0EhfnklF3uWu/hZwJzl5QNYJi3ks2EnlDi4Vf9l+yIQ6GNWKx4mY8x9
QxYeG0lWOBt59wPosvUC+u0VBtP8r4TYNKbfJxUIWYPHgzRlysbVjIaa8DCDICRB
EBhsIAZdAgMBAAECggEBAJlC8bjSt6bmUVcUzp+Yzejh/qvSsONqWhIG7Uy60vqN
hLmvzvRu9/bD+NwnkHkanW7TI1jYYMsAwIyD3SF/dT2uQAePuROvvPCVELcA8bCo
CLV4EccDQY/R6t0j38xfBQLeh2vyaq7yQMBrro+ZlTdgDvSoZhrUpbt9e5tOyKlP
p8EwVW74251XSfONrbsbEvTq5GsNSgerAJT9pC05FhpXp92WPYrDFV0906hlt6z2
vyLw/PVaQR3YLeNcZ7Fp/AEOTht3M4vfaMq1ibEOi5DueBV0RSGcFzKaP1FFnqsD
a5x3NGpY5q8ngCcwlWWEsBLnVzDIjI7FJWOnX5F87GUCgYEA/dWuKo09GD6g+oeC
R6LsSxZdqLl5jopUFgKMpdFWs07rZD1HoH+8Dpl0bYSvSBnXza7d5BmE5HwpA3ts
Y9OinVu9UCgqToO3PZbbyqQ9AhqLW7YlVjZ2G+U8BM6Z1j0+C3aZ8jRXRRXQj9V1
pUDuDjCK7WEp3Z3fyuqFpMLy+msCgYEA52kB539F7hRkxoob0gMidC3+qiMDjC6t
uwbiovyWnO38t+ggQR27AZHfVHqW+iXSt2oiTjZ8pNhrBzpWcLZLvOVXzlTeJL+B
YL2I/rjnRlplBDAfoUyLRCfQQ9FpaBvvoxooySNeRAIZ+9GgeiqTRYz91/CZX5h/
OIgNV6Y5xFcCgYAo6ny8ly+17MJ+H8G8UmLMZ7qJK/yQIXQUaCzLvca/+ISxD7+v
+2cQ42OFE9I9SQ0kNn/F+OcW/XyO9yItpTudKeCGPzMynMC4yMx9CaRb5nN4QRAb
qYO4U2ctTzA0/II3ztJZ3F4E4NNRnBLupFy7JNAAG51n/77HMq6ANHx+KQKBgQDi
d4CWlpbQVYL+TiDF2a15N54X0SZipTf+ZdGcokefksSVEoWmVDs0YRbH7SUd77AV
MbgbBPXcubOcojoAGldqqKPS2HmCSyyJiVOtvTURQ9vCSnpZ97f/XltSU3mtmlFe
NHafyY4yTkAxkkhT5qC0GzQ9hUgEJxCyOWudUJ8OBwKBgGd8n3UchJ+Ll3calcHO
GKlWdqNPI6yLtY0wTqZGCZIWGjskm6YoYj4kEyBten/ERBArSuUeucj5qCxij97Y
ue27ZP2xDX7ONdd5D36UPck3mfqBiW+BlUI9vGPhBDlA9sRhT2wIkDuu8W9MkyKd
7Y9YAmBiswDTAj5TYYeWqWcM
-----END PRIVATE KEY-----
Certificate:
    Data:
        Version: 1 (0x0)
        Serial Number:
            3f:d8:8a:ed:26:a6:7e:6f:53:9f:fe:85:a4:a3:62:44:65:9f:ff:47
        Signature Algorithm: sha256WithRSAEncryption
        Issuer: C=XY, O=Dask CA, CN=our-ca-server
        Validity
            Not Before: Dec 13 02:52:10 2018 GMT
            Not After : Oct 21 02:52:10 2028 GMT
        Subject: C=XY, L=Dask-distributed, O=Dask, CN=localhost
        Subject Public Key Info:
            Public Key Algorithm: rsaEncryption
                RSA Public-Key: (2048 bit)
                Modulus:
                    00:e5:73:ee:b0:34:96:b9:f2:12:3e:15:8a:e9:76:
                    c7:11:29:e0:23:78:84:03:ec:eb:a8:1e:eb:b6:02:
                    bf:34:95:43:29:1e:fb:27:41:fc:7d:55:f8:74:ea:
                    dc:e2:da:88:d1:8d:4e:ee:78:bf:ca:4c:da:5a:01:
                    24:e7:4e:95:c6:b2:8d:55:e0:b1:6d:70:a4:c7:0e:
                    a5:35:77:91:75:06:42:74:6a:a4:2c:7f:8f:d4:0a:
                    f0:9e:af:b1:97:1d:0e:37:4e:fa:e8:ba:c1:a9:59:
                    38:f5:5d:67:d1:1f:61:37:e5:ca:72:89:6f:3b:61:
                    49:45:7f:fa:e7:b4:17:76:8e:4a:77:ef:6a:2e:6b:
                    b4:ba:24:27:7c:45:d7:af:d4:20:53:e2:ec:da:4f:
                    bd:c2:e0:fc:a2:61:8a:d8:96:f0:68:67:41:21:7e:
                    79:25:17:7b:96:bb:f8:59:c0:9c:e5:e5:03:58:26:
                    2d:e4:b3:61:27:94:38:b8:55:ff:65:fb:22:10:e8:
                    63:56:2b:1e:26:63:cc:7d:43:16:1e:1b:49:56:38:
                    1b:79:f7:03:e8:b2:f5:02:fa:ed:15:06:d3:fc:af:
                    84:d8:34:a6:df:27:15:08:59:83:c7:83:34:65:ca:
                    c6:d5:8c:86:9a:f0:30:83:20:24:41:10:18:6c:20:
                    06:5d
                Exponent: 65537 (0x10001)
    Signature Algorithm: sha256WithRSAEncryption
         6f:78:94:3b:66:82:b5:6f:c5:59:91:fe:54:91:da:5d:04:28:
         37:63:53:d3:76:16:21:b4:4f:18:57:c6:ee:11:ef:c1:5f:d1:
         9a:a4:a0:15:60:33:94:52:2f:be:3d:60:9c:9f:51:79:aa:36:
         28:02:cf:0d:60:a9:e9:54:b8:a5:d4:49:d1:10:e6:f4:a6:a2:
         1d:27:55:c7:28:63:9e:48:99:ec:d2:88:d7:da:34:03:b6:d9:
         32:a0:4f:0f:6d:b5:a3:36:ac:54:cc:60:fd:6a:e8:86:c8:57:
         6e:61:de:66:b3:44:ab:18:95:1c:7f:2d:6e:53:a3:66:17:6e:
         8c:c8:0c:e1:3c:da:82:d6:c6:28:f8:4c:fa:7f:ca:71:0a:9d:
         de:7e:19:40:17:e9:40:2f:b3:18:aa:e8:31:bc:0f:5e:61:b5:
         50:e6:14:3b:e2:7c:dd:70:b3:dc:b9:d0:18:af:87:e4:db:29:
         1b:f1:a1:6d:2a:44:e5:bf:d7:8d:18:77:dc:f5:25:6a:b3:8a:
         19:00:3e:15:2b:28:ed:40:c1:45:ad:66:db:74:a0:53:e8:0c:
         2f:fb:ae:d6:35:9c:3f:c8:81:f9:13:dd:49:06:77:26:82:7d:
         6d:66:a1:87:a9:9d:ca:4b:2f:c5:19:91:a6:3c:4a:f2:b7:bf:
         af:8c:97:90
-----BEGIN CERTIFICATE-----
MIIDCTCCAfECFD/Yiu0mpn5vU5/+haSjYkRln/9HMA0GCSqGSIb3DQEBCwUAMDcx
CzAJBgNVBAYTAlhZMRAwDgYDVQQKDAdEYXNrIENBMRYwFAYDVQQDDA1vdXItY2Et
c2VydmVyMB4XDTE4MTIxMzAyNTIxMFoXDTI4MTAyMTAyNTIxMFowSzELMAkGA1UE
BhMCWFkxGTAXBgNVBAcMEERhc2stZGlzdHJpYnV0ZWQxDTALBgNVBAoMBERhc2sx
EjAQBgNVBAMMCWxvY2FsaG9zdDCCASIwDQYJKoZIhvcNAQEBBQADggEPADCCAQoC
ggEBAOVz7rA0lrnyEj4Viul2xxEp4CN4hAPs66ge67YCvzSVQyke+ydB/H1V+HTq
3OLaiNGNTu54v8pM2loBJOdOlcayjVXgsW1wpMcOpTV3kXUGQnRqpCx/j9QK8J6v
sZcdDjdO+ui6walZOPVdZ9EfYTflynKJbzthSUV/+ue0F3aOSnfvai5rtLokJ3xF
16/UIFPi7NpPvcLg/KJhitiW8GhnQSF+eSUXe5a7+FnAnOXlA1gmLeSzYSeUOLhV
/2X7IhDoY1YrHiZjzH1DFh4bSVY4G3n3A+iy9QL67RUG0/yvhNg0pt8nFQhZg8eD
NGXKxtWMhprwMIMgJEEQGGwgBl0CAwEAATANBgkqhkiG9w0BAQsFAAOCAQEAb3iU
O2aCtW/FWZH+VJHaXQQoN2NT03YWIbRPGFfG7hHvwV/RmqSgFWAzlFIvvj1gnJ9R
eao2KALPDWCp6VS4pdRJ0RDm9KaiHSdVxyhjnkiZ7NKI19o0A7bZMqBPD221ozas
VMxg/WrohshXbmHeZrNEqxiVHH8tblOjZhdujMgM4TzagtbGKPhM+n/KcQqd3n4Z
QBfpQC+zGKroMbwPXmG1UOYUO+J83XCz3LnQGK+H5NspG/GhbSpE5b/XjRh33PUl
arOKGQA+FSso7UDBRa1m23SgU+gML/uu1jWcP8iB+RPdSQZ3JoJ9bWahh6mdyksv
xRmRpjxK8re/r4yXkA==
-----END CERTIFICATE-----
