Certificate:
    Data:
        Version: 3 (0x2)
        Serial Number:
            3f:d8:8a:ed:26:a6:7e:6f:53:9f:fe:85:a4:a3:62:44:65:9f:ff:46
        Signature Algorithm: sha256WithRSAEncryption
        Issuer: C=XY, O=Dask CA, CN=our-ca-server
        Validity
            Not Before: Dec 13 02:52:10 2018 GMT
            Not After : Dec 10 02:52:10 2028 GMT
        Subject: C=XY, O=Dask CA, CN=our-ca-server
        Subject Public Key Info:
            Public Key Algorithm: rsaEncryption
                RSA Public-Key: (2048 bit)
                Modulus:
                    00:d0:49:58:02:6d:4c:db:00:c2:bf:90:d7:95:f6:
                    87:c0:8d:9c:1e:3b:c4:ed:2c:33:02:2d:be:58:82:
                    59:2b:7e:4c:91:23:8b:73:2c:97:89:07:2d:ac:93:
                    5e:39:11:25:75:11:7a:1a:d0:d6:e3:80:e6:e3:5b:
                    93:db:3d:97:be:bb:96:3f:ff:1d:26:c8:fe:e2:a8:
                    cb:28:cb:3b:5f:88:05:df:27:81:b1:38:29:d5:77:
                    6d:f7:e5:9a:19:60:4b:f8:a9:53:00:90:c8:a3:32:
                    0e:73:0a:3b:51:a9:ab:92:1e:6b:2f:28:82:01:18:
                    6e:13:fd:69:1a:79:bd:a9:40:cb:70:b7:92:75:1e:
                    19:0c:b4:3c:c1:7e:55:80:05:be:8d:f0:80:d9:25:
                    89:74:1a:92:1d:ba:26:a1:65:39:96:50:46:95:e4:
                    be:29:47:8b:77:0d:11:eb:a1:7a:87:19:14:bf:82:
                    0a:4d:ca:d4:6d:40:66:4a:5f:12:cd:a3:16:14:19:
                    a2:8d:7a:07:80:36:04:56:e6:f3:7d:38:c6:75:97:
                    c9:7c:95:9a:f9:ff:79:6d:c7:40:7a:c2:92:2d:ef:
                    7a:52:07:de:6b:03:9f:af:17:72:63:53:31:88:57:
                    76:d5:45:e1:2f:c5:aa:ed:93:d6:46:7e:07:00:cf:
                    49:eb
                Exponent: 65537 (0x10001)
        X509v3 extensions:
            X509v3 Subject Key Identifier: 
                59:66:3D:F8:65:B7:98:7E:C1:E4:31:19:34:E5:A3:0D:2E:3D:F9:38
            X509v3 Authority Key Identifier: 
                keyid:59:66:3D:F8:65:B7:98:7E:C1:E4:31:19:34:E5:A3:0D:2E:3D:F9:38

            X509v3 Basic Constraints: 
                CA:TRUE
    Signature Algorithm: sha256WithRSAEncryption
         a2:bd:c7:e4:23:24:4e:da:db:d3:bd:7f:33:87:5f:1f:3b:e8:
         fa:19:54:17:eb:60:86:ac:d6:18:47:35:90:88:47:d6:f1:5a:
         31:ed:e1:44:b4:16:6a:04:c3:6f:9b:ba:cf:99:14:0a:c8:32:
         0a:69:fd:41:c3:67:25:3d:f7:84:31:81:8b:2e:b0:9c:04:74:
         2c:0b:87:b2:a8:48:a2:c7:42:bb:90:31:82:a5:51:38:03:df:
         e7:aa:76:f7:1a:ae:b9:69:5c:94:62:7f:19:3e:5c:6b:97:99:
         9e:4a:9e:4b:34:f5:39:15:fe:12:72:88:7b:1f:be:db:3a:3b:
         7f:14:06:7b:ef:b2:fc:c4:ad:82:51:4a:95:6c:23:a5:bb:65:
         38:0e:55:70:e1:96:88:bc:29:82:38:48:63:ac:5a:73:20:3c:
         d7:39:25:e9:35:46:9b:6b:b1:a0:77:56:a0:a6:30:0f:7e:0e:
         12:10:11:41:28:6a:f4:ca:b5:c3:a9:fd:fe:9f:cf:29:5e:26:
         d7:a8:4c:28:a5:31:10:c2:07:25:c2:0a:5d:35:73:f7:db:3c:
         6b:5d:2f:1a:f1:b0:e7:81:26:22:fe:38:63:2f:3e:5b:a7:d5:
         b5:a8:ef:fe:87:b4:6f:2d:5e:7e:48:6c:c0:b9:ca:7f:ab:28:
         c3:31:ae:93
-----BEGIN CERTIFICATE-----
MIIDTDCCAjSgAwIBAgIUP9iK7Samfm9Tn/6FpKNiRGWf/0YwDQYJKoZIhvcNAQEL
BQAwNzELMAkGA1UEBhMCWFkxEDAOBgNVBAoMB0Rhc2sgQ0ExFjAUBgNVBAMMDW91
ci1jYS1zZXJ2ZXIwHhcNMTgxMjEzMDI1MjEwWhcNMjgxMjEwMDI1MjEwWjA3MQsw
CQYDVQQGEwJYWTEQMA4GA1UECgwHRGFzayBDQTEWMBQGA1UEAwwNb3VyLWNhLXNl
cnZlcjCCASIwDQYJKoZIhvcNAQEBBQADggEPADCCAQoCggEBANBJWAJtTNsAwr+Q
15X2h8CNnB47xO0sMwItvliCWSt+TJEji3Msl4kHLayTXjkRJXURehrQ1uOA5uNb
k9s9l767lj//HSbI/uKoyyjLO1+IBd8ngbE4KdV3bfflmhlgS/ipUwCQyKMyDnMK
O1Gpq5Ieay8oggEYbhP9aRp5valAy3C3knUeGQy0PMF+VYAFvo3wgNkliXQakh26
JqFlOZZQRpXkvilHi3cNEeuheocZFL+CCk3K1G1AZkpfEs2jFhQZoo16B4A2BFbm
8304xnWXyXyVmvn/eW3HQHrCki3velIH3msDn68XcmNTMYhXdtVF4S/Fqu2T1kZ+
BwDPSesCAwEAAaNQME4wHQYDVR0OBBYEFFlmPfhlt5h+weQxGTTlow0uPfk4MB8G
A1UdIwQYMBaAFFlmPfhlt5h+weQxGTTlow0uPfk4MAwGA1UdEwQFMAMBAf8wDQYJ
KoZIhvcNAQELBQADggEBAKK9x+QjJE7a29O9fzOHXx876PoZVBfrYIas1hhHNZCI
R9bxWjHt4US0FmoEw2+bus+ZFArIMgpp/UHDZyU994QxgYsusJwEdCwLh7KoSKLH
QruQMYKlUTgD3+eqdvcarrlpXJRifxk+XGuXmZ5Knks09TkV/hJyiHsfvts6O38U
BnvvsvzErYJRSpVsI6W7ZTgOVXDhloi8KYI4SGOsWnMgPNc5Jek1RptrsaB3VqCm
MA9+DhIQEUEoavTKtcOp/f6fzyleJteoTCilMRDCByXCCl01c/fbPGtdLxrxsOeB
JiL+OGMvPlun1bWo7/6HtG8tXn5IbMC5yn+rKMMxrpM=
-----END CERTIFICATE-----
